target datalayout = "e-m:e-p270:32:32-p271:32:32-p272:64:64-i64:64-i128:128-f80:128-n8:16:32:64-S128"
target triple = "x86_64-unknown-linux-gnu"

@used_memory = internal global i64 0, align 8

; Function Attrs: nounwind allocsize(1) uwtable
define dso_local ptr @extend_to_usable(ptr noundef %ptr, i64 noundef %size) #2 {
entry:
  %ptr.addr = alloca ptr, align 8
  %size.addr = alloca i64, align 8
  store ptr %ptr, ptr %ptr.addr, align 8
  store i64 %size, ptr %size.addr, align 8
  %0 = load ptr, ptr %ptr.addr, align 8
  ret ptr %0
}

; Function Attrs: nounwind uwtable
define internal ptr @ztrymalloc_usable_internal(i64 noundef %size, ptr noundef %usable) #0 {
entry:
  %retval = alloca ptr, align 8
  %size.addr = alloca i64, align 8
  %usable.addr = alloca ptr, align 8
  %ptr = alloca ptr, align 8
  %.atomictmp = alloca i64, align 8
  %atomic-temp = alloca i64, align 8
  store i64 %size, ptr %size.addr, align 8
  store ptr %usable, ptr %usable.addr, align 8
  %0 = load i64, ptr %size.addr, align 8
  %cmp = icmp uge i64 %0, 9223372036854775807
  br i1 %cmp, label %if.then, label %if.end

if.then:                                          ; preds = %entry
  store ptr null, ptr %retval, align 8
  br label %return

if.end:                                           ; preds = %entry
  %1 = load i64, ptr %size.addr, align 8
  %cmp1 = icmp ugt i64 %1, 0
  br i1 %cmp1, label %cond.true, label %cond.false

cond.true:                                        ; preds = %if.end
  %2 = load i64, ptr %size.addr, align 8
  br label %cond.end

cond.false:                                       ; preds = %if.end
  br label %cond.end

cond.end:                                         ; preds = %cond.false, %cond.true
  %cond = phi i64 [ %2, %cond.true ], [ 8, %cond.false ]
  %add = add i64 %cond, 0
  %call = call noalias ptr @je_malloc(i64 noundef %add) #14
  store ptr %call, ptr %ptr, align 8
  %3 = load ptr, ptr %ptr, align 8
  %tobool = icmp ne ptr %3, null
  br i1 %tobool, label %if.end3, label %if.then2

if.then2:                                         ; preds = %cond.end
  store ptr null, ptr %retval, align 8
  br label %return

if.end3:                                          ; preds = %cond.end
  %4 = load ptr, ptr %ptr, align 8
  %call4 = call i64 @je_malloc_usable_size(ptr noundef %4) #12
  store i64 %call4, ptr %size.addr, align 8
  %5 = load i64, ptr %size.addr, align 8
  store i64 %5, ptr %.atomictmp, align 8
  %6 = load i64, ptr %.atomictmp, align 8
  %7 = atomicrmw add ptr @used_memory, i64 %6 monotonic, align 8
  store i64 %7, ptr %atomic-temp, align 8
  %8 = load ptr, ptr %usable.addr, align 8
  %tobool5 = icmp ne ptr %8, null
  br i1 %tobool5, label %if.then6, label %if.end7

if.then6:                                         ; preds = %if.end3
  %9 = load i64, ptr %size.addr, align 8
  %10 = load ptr, ptr %usable.addr, align 8
  store i64 %9, ptr %10, align 8
  br label %if.end7

if.end7:                                          ; preds = %if.then6, %if.end3
  %11 = load ptr, ptr %ptr, align 8
  store ptr %11, ptr %retval, align 8
  br label %return

return:                                           ; preds = %if.end7, %if.then2, %if.then
  %12 = load ptr, ptr %retval, align 8
  ret ptr %12
}

; Function Attrs: nounwind uwtable
define dso_local ptr @ztrymalloc_usable(i64 noundef %size, ptr noundef %usable) #0 {
entry:
  %size.addr = alloca i64, align 8
  %usable.addr = alloca ptr, align 8
  %usable_size = alloca i64, align 8
  %ptr = alloca ptr, align 8
  store i64 %size, ptr %size.addr, align 8
  store ptr %usable, ptr %usable.addr, align 8
  store i64 0, ptr %usable_size, align 8
  %0 = load i64, ptr %size.addr, align 8
  %call = call ptr @ztrymalloc_usable_internal(i64 noundef %0, ptr noundef %usable_size)
  store ptr %call, ptr %ptr, align 8
  %1 = load ptr, ptr %ptr, align 8
  %2 = load i64, ptr %usable_size, align 8
  %call1 = call ptr @extend_to_usable(ptr noundef %1, i64 noundef %2) #13
  store ptr %call1, ptr %ptr, align 8
  %3 = load ptr, ptr %usable.addr, align 8
  %tobool = icmp ne ptr %3, null
  br i1 %tobool, label %if.then, label %if.end

if.then:                                          ; preds = %entry
  %4 = load i64, ptr %usable_size, align 8
  %5 = load ptr, ptr %usable.addr, align 8
  store i64 %4, ptr %5, align 8
  br label %if.end

if.end:                                           ; preds = %if.then, %entry
  %6 = load ptr, ptr %ptr, align 8
  ret ptr %6
}