; Function Attrs: nounwind uwtable
define dso_local ptr @ztrymalloc_usable(i64 noundef %size, ptr noundef writeonly %usable) local_unnamed_addr #3 {
entry:
  %cmp.i = icmp ugt i64 %size, 9223372036854775806
  br i1 %cmp.i, label %ztrymalloc_usable_internal.exit, label %if.end.i

if.end.i:                                         ; preds = %entry
  %cmp1.not.i = icmp eq i64 %size, 0
  %cond.i = select i1 %cmp1.not.i, i64 8, i64 %size
  %call.i = tail call noalias ptr @je_malloc(i64 noundef %cond.i) #25
  %tobool.not.i = icmp eq ptr %call.i, null
  br i1 %tobool.not.i, label %ztrymalloc_usable_internal.exit, label %if.end3.i

if.end3.i:                                        ; preds = %if.end.i
  %call4.i = tail call i64 @je_malloc_usable_size(ptr noundef nonnull %call.i) #24
  %0 = atomicrmw add ptr @used_memory, i64 %call4.i monotonic, align 8
  br label %ztrymalloc_usable_internal.exit

ztrymalloc_usable_internal.exit:                  ; preds = %entry, %if.end.i, %if.end3.i
  %usable_size.0 = phi i64 [ 0, %entry ], [ 0, %if.end.i ], [ %call4.i, %if.end3.i ]
  %retval.0.i = phi ptr [ null, %entry ], [ null, %if.end.i ], [ %call.i, %if.end3.i ]
  %tobool.not = icmp eq ptr %usable, null
  br i1 %tobool.not, label %if.end, label %if.then

if.then:                                          ; preds = %ztrymalloc_usable_internal.exit
  store i64 %usable_size.0, ptr %usable, align 8
  br label %if.end

if.end:                                           ; preds = %if.then, %ztrymalloc_usable_internal.exit
  ret ptr %retval.0.i
}